(lp0
ccopy_reg
_reconstructor
p1
(cpersons.staff
Staff
p2
c__builtin__
object
p3
Ntp4
Rp5
(dp6
S'first_name'
p7
Verika
p8
sS'last_name'
p9
Vdike
p10
sS'room'
p11
g1
(csqlalchemy.orm.collections
InstrumentedList
p12
c__builtin__
list
p13
(lp14
g1
(crooms.office
Office
p15
g3
Ntp16
Rp17
(dp18
S'_sa_instance_state'
p19
g1
(csqlalchemy.orm.state
InstanceState
p20
g3
Ntp21
Rp22
(dp23
S'class_'
p24
g15
sS'modified'
p25
I01
sS'committed_state'
p26
(dp27
S'capacity'
p28
csqlalchemy.util.langhelpers
symbol
p29
(S'NO_VALUE'
p30
S'x'
p31
I5699626739644918547
tp32
Rp33
sS'name'
p34
g33
sS'floor'
p35
g33
sS'no_of_occupants'
p36
g33
sS'identifier'
p37
g33
sS'type'
p38
g33
ssS'instance'
p39
g17
sS'manager'
p40
g1
(csqlalchemy.orm.instrumentation
_SerializeManager
p41
g3
Ntp42
Rp43
(dp44
S'class_'
p45
g15
sbsS'parents'
p46
(dp47
sS'expired_attributes'
p48
c__builtin__
set
p49
((lp50
tp51
Rp52
sS'expired'
p53
I00
sS'_pending_mutations'
p54
(dp55
sbsS'capacity'
p56
I6
sS'name'
p57
Vbellow
p58
sS'floor'
p59
I1
sS'no_of_occupants'
p60
I4
sS'identifier'
p61
I1
sS'type'
p62
S'office'
p63
sbatp64
Rp65
(dp66
S'_sa_adapter'
p67
g1
(csqlalchemy.orm.collections
CollectionAdapter
p68
g3
Ntp69
Rp70
(dp71
S'data'
p72
g65
sS'owner_state'
p73
g1
(g20
g3
Ntp74
Rp75
(dp76
g24
g2
sg25
I01
sg26
(dp77
S'first_name'
p78
g33
sS'last_name'
p79
g33
sg38
g33
sS'room'
p80
(lp81
sg37
g33
ssg39
g5
sg40
g1
(g41
g3
Ntp82
Rp83
(dp84
g45
g2
sbsg46
(dp85
sg48
g49
((lp86
tp87
Rp88
sg53
I00
sg54
(dp89
sbsS'key'
p90
g80
sbsbsg19
g75
sg61
I0
sg62
S'staff'
p91
sbag1
(cpersons.fellow
Fellow
p92
g3
Ntp93
Rp94
(dp95
g7
Vrikky
p96
sg9
Vdyke
p97
sg11
g1
(g12
g13
(lp98
g17
ag1
(crooms.living_space
LivingSpace
p99
g3
Ntp100
Rp101
(dp102
g19
g1
(g20
g3
Ntp103
Rp104
(dp105
g24
g99
sg25
I01
sg26
(dp106
g28
g33
sg34
g33
sg35
g33
sg36
g33
sg37
g33
sg38
g33
ssg39
g101
sg40
g1
(g41
g3
Ntp107
Rp108
(dp109
g45
g99
sbsg46
(dp110
sg48
g49
((lp111
tp112
Rp113
sg53
I00
sg54
(dp114
sbsg56
I4
sg57
Vmahogany
p115
sg59
I1
sg60
I0
sg61
I0
sg62
S'living space'
p116
sbatp117
Rp118
(dp119
g67
g1
(g68
g3
Ntp120
Rp121
(dp122
g72
g118
sg73
g1
(g20
g3
Ntp123
Rp124
(dp125
g24
g92
sg25
I01
sg26
(dp126
g78
g33
sg79
g33
sg38
g33
sg80
(lp127
sg37
g33
ssg39
g94
sg40
g1
(g41
g3
Ntp128
Rp129
(dp130
g45
g92
sbsg46
(dp131
sg48
g49
((lp132
tp133
Rp134
sg53
I00
sg54
(dp135
sbsg90
g80
sbsbsg19
g124
sg61
I1
sg62
S'fellow'
p136
sbag1
(g92
g3
Ntp137
Rp138
(dp139
g7
Vsteve
p140
sg9
Voduntan
p141
sg11
g1
(g12
g13
(lp142
g17
ag101
atp143
Rp144
(dp145
g67
g1
(g68
g3
Ntp146
Rp147
(dp148
g72
g144
sg73
g1
(g20
g3
Ntp149
Rp150
(dp151
g24
g92
sg25
I01
sg26
(dp152
g78
g33
sg79
g33
sg38
g33
sg80
(lp153
sg37
g33
ssg39
g138
sg40
g1
(g41
g3
Ntp154
Rp155
(dp156
g45
g92
sbsg46
(dp157
sg48
g49
((lp158
tp159
Rp160
sg53
I00
sg54
(dp161
sbsg90
g80
sbsbsg19
g150
sg61
I2
sg62
g136
sbag1
(g92
g3
Ntp162
Rp163
(dp164
g7
Vseyi
p165
sg9
Valf
p166
sg11
g1
(g12
g13
(lp167
g101
ag1
(g15
g3
Ntp168
Rp169
(dp170
g19
g1
(g20
g3
Ntp171
Rp172
(dp173
g24
g15
sg25
I01
sg26
(dp174
S'capacity'
p175
g33
sS'name'
p176
g33
sS'floor'
p177
g33
sS'no_of_occupants'
p178
g33
sS'identifier'
p179
g33
sS'type'
p180
g33
ssg39
g169
sg40
g1
(g41
g3
Ntp181
Rp182
(dp183
g45
g15
sbsg46
(dp184
sg48
g49
((lp185
tp186
Rp187
sg53
I00
sg54
(dp188
sbsg56
I6
sg57
S'maza'
p189
sg59
I1
sg60
I-1
sg61
I4
sg62
S'office'
p190
sbatp191
Rp192
(dp193
g67
g1
(g68
g3
Ntp194
Rp195
(dp196
g72
g192
sg73
g1
(g20
g3
Ntp197
Rp198
(dp199
g24
g92
sg25
I01
sg26
(dp200
g78
g33
sg79
g33
sg38
g33
sg80
(lp201
sg37
g33
ssg39
g163
sg40
g1
(g41
g3
Ntp202
Rp203
(dp204
g45
g92
sbsg46
(dp205
sg48
g49
((lp206
tp207
Rp208
sg53
I00
sg54
(dp209
sbsg90
g80
sbsbsg19
g198
sg61
I3
sg62
g136
sbag1
(g92
g3
Ntp210
Rp211
(dp212
g7
Vmada
p213
sg9
Vman
p214
sg11
g1
(g12
g13
(lp215
g17
ag101
atp216
Rp217
(dp218
g67
g1
(g68
g3
Ntp219
Rp220
(dp221
g72
g217
sg73
g1
(g20
g3
Ntp222
Rp223
(dp224
g24
g92
sg25
I01
sg26
(dp225
g78
g33
sg79
g33
sg38
g33
sg80
(lp226
sg37
g33
ssg39
g211
sg40
g1
(g41
g3
Ntp227
Rp228
(dp229
g45
g92
sbsg46
(dp230
sg48
g49
((lp231
tp232
Rp233
sg53
I00
sg54
(dp234
sbsg90
g80
sbsbsg19
g223
sg61
I4
sg62
g136
sbag1
(g92
g3
Ntp235
Rp236
(dp237
g7
Vyouth
p238
sg9
Vfull
p239
sg11
g1
(g12
g13
(lp240
g17
atp241
Rp242
(dp243
g67
g1
(g68
g3
Ntp244
Rp245
(dp246
g72
g242
sg73
g1
(g20
g3
Ntp247
Rp248
(dp249
g24
g92
sg25
I01
sg26
(dp250
g78
g33
sg79
g33
sg38
g33
sg80
(lp251
sg37
g33
ssg39
g236
sg40
g1
(g41
g3
Ntp252
Rp253
(dp254
g45
g92
sbsg46
(dp255
sg48
g49
((lp256
tp257
Rp258
sg53
I00
sg54
(dp259
sbsg90
g80
sbsbsg19
g248
sg61
I5
sg62
g136
sba.