(lp0
ccopy_reg
_reconstructor
p1
(cpersons.fellow
Fellow
p2
c__builtin__
object
p3
Ntp4
Rp5
(dp6
S'first_name'
p7
Voluwafemi
p8
sS'_sa_instance_state'
p9
g1
(csqlalchemy.orm.state
InstanceState
p10
g3
Ntp11
Rp12
(dp13
S'class_'
p14
g2
sS'modified'
p15
I01
sS'committed_state'
p16
(dp17
S'last_name'
p18
csqlalchemy.util.langhelpers
symbol
p19
(S'NO_VALUE'
p20
S'x'
p21
I5699626739644918547
tp22
Rp23
sg7
g23
sS'mem_id'
p24
g23
sS'type'
p25
g23
sS'rooms'
p26
(lp27
ssS'instance'
p28
g5
sS'manager'
p29
g1
(csqlalchemy.orm.instrumentation
_SerializeManager
p30
g3
Ntp31
Rp32
(dp33
S'class_'
p34
g2
sbsS'expired_attributes'
p35
c__builtin__
set
p36
((lp37
tp38
Rp39
sbsg18
Vsule
p40
sg26
g1
(csqlalchemy.orm.collections
InstrumentedList
p41
c__builtin__
list
p42
(lp43
g1
(crooms.office
Office
p44
g3
Ntp45
Rp46
(dp47
g9
g1
(g10
g3
Ntp48
Rp49
(dp50
g14
g44
sg15
I01
sg16
(dp51
S'capacity'
p52
g23
sS'name'
p53
g23
sS'floor'
p54
g23
sS'no_of_occupants'
p55
g23
sg24
g23
sg25
g23
ssg28
g46
sg29
g1
(g30
g3
Ntp56
Rp57
(dp58
g34
g44
sbsg35
g36
((lp59
tp60
Rp61
sbsg52
I6
sg53
Vbellow
p62
sg54
I0
sg55
I5
sg24
I4
sg25
S'office'
p63
sbag1
(crooms.living_space
LivingSpace
p64
g3
Ntp65
Rp66
(dp67
g9
g1
(g10
g3
Ntp68
Rp69
(dp70
g14
g64
sg15
I01
sg16
(dp71
g52
g23
sg53
g23
sg54
g23
sg55
g23
sg24
g23
sg25
g23
ssg28
g66
sg29
g1
(g30
g3
Ntp72
Rp73
(dp74
g34
g64
sbsg35
g36
((lp75
tp76
Rp77
sbsg52
I4
sg53
Vmahogany
p78
sg54
I1
sg55
I1
sg24
I2
sg25
S'living space'
p79
sbatp80
Rp81
(dp82
S'_sa_adapter'
p83
g1
(csqlalchemy.orm.collections
CollectionAdapter
p84
g3
Ntp85
Rp86
(dp87
S'data'
p88
g81
sS'owner_state'
p89
g12
sS'key'
p90
g26
sbsbsg24
I0
sg25
S'fellow'
p91
sbag1
(cpersons.staff
Staff
p92
g3
Ntp93
Rp94
(dp95
g7
Vdominic
p96
sg9
g1
(g10
g3
Ntp97
Rp98
(dp99
g14
g92
sg15
I01
sg16
(dp100
g18
g23
sg7
g23
sg24
g23
sg25
g23
sg26
(lp101
ssg28
g94
sg29
g1
(g30
g3
Ntp102
Rp103
(dp104
g34
g92
sbsg35
g36
((lp105
tp106
Rp107
sbsg18
Vwalters
p108
sg26
g1
(g41
g42
(lp109
g46
atp110
Rp111
(dp112
g83
g1
(g84
g3
Ntp113
Rp114
(dp115
g88
g111
sg89
g98
sg90
g26
sbsbsg24
I1
sg25
S'staff'
p116
sbag1
(g2
g3
Ntp117
Rp118
(dp119
g7
Vsimon
p120
sg9
g1
(g10
g3
Ntp121
Rp122
(dp123
g14
g2
sg15
I01
sg16
(dp124
g18
g23
sg7
g23
sg24
g23
sg25
g23
sg26
(lp125
ssg28
g118
sg29
g1
(g30
g3
Ntp126
Rp127
(dp128
g34
g2
sbsg35
g36
((lp129
tp130
Rp131
sbsg18
Vpatterson
p132
sg26
g1
(g41
g42
(lp133
g1
(g44
g3
Ntp134
Rp135
(dp136
g9
g1
(g10
g3
Ntp137
Rp138
(dp139
g14
g44
sg15
I01
sg16
(dp140
g52
g23
sg53
g23
sg54
g23
sg55
g23
sg24
g23
sg25
g23
ssg28
g135
sg29
g1
(g30
g3
Ntp141
Rp142
(dp143
g34
g44
sbsg35
g36
((lp144
tp145
Rp146
sbsg52
I6
sg53
Vforge
p147
sg54
I0
sg55
I2
sg24
I3
sg25
g63
sbag1
(g64
g3
Ntp148
Rp149
(dp150
g9
g1
(g10
g3
Ntp151
Rp152
(dp153
g14
g64
sg15
I01
sg16
(dp154
g52
g23
sg53
g23
sg54
g23
sg55
g23
sg24
g23
sg25
g23
ssg28
g149
sg29
g1
(g30
g3
Ntp155
Rp156
(dp157
g34
g64
sbsg35
g36
((lp158
tp159
Rp160
sbsg52
I4
sg53
Viroko
p161
sg54
I1
sg55
I2
sg24
I0
sg25
g79
sbatp162
Rp163
(dp164
g83
g1
(g84
g3
Ntp165
Rp166
(dp167
g88
g163
sg89
g122
sg90
g26
sbsbsg24
I2
sg25
g91
sbag1
(g2
g3
Ntp168
Rp169
(dp170
g7
Vmari
p171
sg9
g1
(g10
g3
Ntp172
Rp173
(dp174
g14
g2
sg15
I01
sg16
(dp175
g18
g23
sg7
g23
sg24
g23
sg25
g23
sg26
(lp176
ssg28
g169
sg29
g1
(g30
g3
Ntp177
Rp178
(dp179
g34
g2
sbsg35
g36
((lp180
tp181
Rp182
sbsg18
Vlawrence
p183
sg26
g1
(g41
g42
(lp184
g46
ag149
atp185
Rp186
(dp187
g83
g1
(g84
g3
Ntp188
Rp189
(dp190
g88
g186
sg89
g173
sg90
g26
sbsbsg24
I3
sg25
g91
sbag1
(g92
g3
Ntp191
Rp192
(dp193
g7
Vleigh
p194
sg9
g1
(g10
g3
Ntp195
Rp196
(dp197
g14
g92
sg15
I01
sg16
(dp198
g18
g23
sg7
g23
sg24
g23
sg25
g23
sg26
(lp199
ssg28
g192
sg29
g1
(g30
g3
Ntp200
Rp201
(dp202
g34
g92
sbsg35
g36
((lp203
tp204
Rp205
sbsg18
Vriley
p206
sg26
g1
(g41
g42
(lp207
g135
atp208
Rp209
(dp210
g83
g1
(g84
g3
Ntp211
Rp212
(dp213
g88
g209
sg89
g196
sg90
g26
sbsbsg24
I4
sg25
g116
sbag1
(g2
g3
Ntp214
Rp215
(dp216
g7
Vtana
p217
sg9
g1
(g10
g3
Ntp218
Rp219
(dp220
g14
g2
sg15
I01
sg16
(dp221
g18
g23
sg7
g23
sg24
g23
sg25
g23
sg26
(lp222
ssg28
g215
sg29
g1
(g30
g3
Ntp223
Rp224
(dp225
g34
g2
sbsg35
g36
((lp226
tp227
Rp228
sbsg18
Vlopez
p229
sg26
g1
(g41
g42
(lp230
g46
ag1
(g64
g3
Ntp231
Rp232
(dp233
g9
g1
(g10
g3
Ntp234
Rp235
(dp236
g14
g64
sg15
I01
sg16
(dp237
g52
g23
sg53
g23
sg54
g23
sg55
g23
sg24
g23
sg25
g23
ssg28
g232
sg29
g1
(g30
g3
Ntp238
Rp239
(dp240
g34
g64
sbsg35
g36
((lp241
tp242
Rp243
sbsg52
I4
sg53
Vobeche
p244
sg54
I1
sg55
I1
sg24
I1
sg25
g79
sbatp245
Rp246
(dp247
g83
g1
(g84
g3
Ntp248
Rp249
(dp250
g88
g246
sg89
g219
sg90
g26
sbsbsg24
I5
sg25
g91
sbag1
(g92
g3
Ntp251
Rp252
(dp253
g7
Vkelly
p254
sg9
g1
(g10
g3
Ntp255
Rp256
(dp257
g14
g92
sg15
I01
sg16
(dp258
g18
g23
sg7
g23
sg24
g23
sg25
g23
sg26
(lp259
ssg28
g252
sg29
g1
(g30
g3
Ntp260
Rp261
(dp262
g34
g92
sbsg35
g36
((lp263
tp264
Rp265
sbsg18
Vmcguire
p266
sg26
g1
(g41
g42
(lp267
g46
atp268
Rp269
(dp270
g83
g1
(g84
g3
Ntp271
Rp272
(dp273
g88
g269
sg89
g256
sg90
g26
sbsbsg24
I6
sg25
g116
sba.