(lp0
ccopy_reg
_reconstructor
p1
(cpersons.fellow
Fellow
p2
c__builtin__
object
p3
Ntp4
Rp5
(dp6
S'first_name'
p7
Verika
p8
sS'_sa_instance_state'
p9
g1
(csqlalchemy.orm.state
InstanceState
p10
g3
Ntp11
Rp12
(dp13
S'class_'
p14
g2
sS'modified'
p15
I01
sS'committed_state'
p16
(dp17
S'last_name'
p18
csqlalchemy.util.langhelpers
symbol
p19
(S'NO_VALUE'
p20
S'x'
p21
I5699626739644918547
tp22
Rp23
sg7
g23
sS'mem_id'
p24
g23
sS'type'
p25
g23
sS'rooms'
p26
(lp27
ssS'instance'
p28
g5
sS'manager'
p29
g1
(csqlalchemy.orm.instrumentation
_SerializeManager
p30
g3
Ntp31
Rp32
(dp33
S'class_'
p34
g2
sbsS'expired_attributes'
p35
c__builtin__
set
p36
((lp37
tp38
Rp39
sbsg18
Vdike
p40
sg26
g1
(csqlalchemy.orm.collections
InstrumentedList
p41
c__builtin__
list
p42
(lp43
g1
(crooms.living_space
LivingSpace
p44
g3
Ntp45
Rp46
(dp47
g9
g1
(g10
g3
Ntp48
Rp49
(dp50
g14
g44
sg15
I01
sg16
(dp51
S'capacity'
p52
g23
sS'name'
p53
g23
sS'floor'
p54
g23
sS'no_of_occupants'
p55
g23
sg24
g23
sg25
g23
ssg28
g46
sg29
g1
(g30
g3
Ntp56
Rp57
(dp58
g34
g44
sbsg35
g36
((lp59
tp60
Rp61
sbsg52
I4
sg53
Vmahogany
p62
sg54
I1
sg55
I1
sg24
I2
sg25
S'living space'
p63
sbag1
(crooms.office
Office
p64
g3
Ntp65
Rp66
(dp67
g9
g1
(g10
g3
Ntp68
Rp69
(dp70
g14
g64
sg15
I01
sg16
(dp71
g52
g23
sg53
g23
sg54
g23
sg55
g23
sg24
g23
sg25
g23
ssg28
g66
sg29
g1
(g30
g3
Ntp72
Rp73
(dp74
g34
g64
sbsg35
g36
((lp75
tp76
Rp77
sbsg52
I6
sg53
Vbellow
p78
sg54
I0
sg55
I1
sg24
I0
sg25
S'office'
p79
sbatp80
Rp81
(dp82
S'_sa_adapter'
p83
g1
(csqlalchemy.orm.collections
CollectionAdapter
p84
g3
Ntp85
Rp86
(dp87
S'data'
p88
g81
sS'owner_state'
p89
g12
sS'key'
p90
g26
sbsbsg24
I0
sg25
S'fellow'
p91
sbag1
(g2
g3
Ntp92
Rp93
(dp94
g7
Verika
p95
sg9
g1
(g10
g3
Ntp96
Rp97
(dp98
g14
g2
sg15
I01
sg16
(dp99
g18
g23
sg7
g23
sg24
g23
sg25
g23
sg26
(lp100
ssg28
g93
sg29
g1
(g30
g3
Ntp101
Rp102
(dp103
g34
g2
sbsg35
g36
((lp104
tp105
Rp106
sbsg18
Vdike
p107
sg26
g1
(g41
g42
(lp108
g1
(g64
g3
Ntp109
Rp110
(dp111
g9
g1
(g10
g3
Ntp112
Rp113
(dp114
g14
g64
sg15
I01
sg16
(dp115
g52
g23
sg53
g23
sg54
g23
sg55
g23
sg24
g23
sg25
g23
ssg28
g110
sg29
g1
(g30
g3
Ntp116
Rp117
(dp118
g34
g64
sbsg35
g36
((lp119
tp120
Rp121
sbsg52
I6
sg53
Vroster
p122
sg54
I0
sg55
I2
sg24
I5
sg25
g79
sbag1
(g44
g3
Ntp123
Rp124
(dp125
g9
g1
(g10
g3
Ntp126
Rp127
(dp128
g14
g44
sg15
I01
sg16
(dp129
g52
g23
sg53
g23
sg54
g23
sg55
g23
sg24
g23
sg25
g23
ssg28
g124
sg29
g1
(g30
g3
Ntp130
Rp131
(dp132
g34
g44
sbsg35
g36
((lp133
tp134
Rp135
sbsg52
I4
sg53
Viroko
p136
sg54
I1
sg55
I2
sg24
I3
sg25
g63
sbatp137
Rp138
(dp139
g83
g1
(g84
g3
Ntp140
Rp141
(dp142
g88
g138
sg89
g97
sg90
g26
sbsbsg24
I1
sg25
g91
sbag1
(g2
g3
Ntp143
Rp144
(dp145
g7
Veze
p146
sg9
g1
(g10
g3
Ntp147
Rp148
(dp149
g14
g2
sg15
I01
sg16
(dp150
g18
g23
sg7
g23
sg24
g23
sg25
g23
sg26
(lp151
ssg28
g144
sg29
g1
(g30
g3
Ntp152
Rp153
(dp154
g34
g2
sbsg35
g36
((lp155
tp156
Rp157
sbsg18
Vjanu
p158
sg26
g1
(g41
g42
(lp159
g1
(g64
g3
Ntp160
Rp161
(dp162
g9
g1
(g10
g3
Ntp163
Rp164
(dp165
g14
g64
sg15
I01
sg16
(dp166
g52
g23
sg53
g23
sg54
g23
sg55
g23
sg24
g23
sg25
g23
ssg28
g161
sg29
g1
(g30
g3
Ntp167
Rp168
(dp169
g34
g64
sbsg35
g36
((lp170
tp171
Rp172
sbsg52
I6
sg53
Vforge
p173
sg54
I0
sg55
I2
sg24
I1
sg25
g79
sbag124
atp174
Rp175
(dp176
g83
g1
(g84
g3
Ntp177
Rp178
(dp179
g88
g175
sg89
g148
sg90
g26
sbsbsg24
I2
sg25
g91
sbag1
(g2
g3
Ntp180
Rp181
(dp182
g7
Vstephen
p183
sg9
g1
(g10
g3
Ntp184
Rp185
(dp186
g14
g2
sg15
I01
sg16
(dp187
g18
g23
sg7
g23
sg24
g23
sg25
g23
sg26
(lp188
ssg28
g181
sg29
g1
(g30
g3
Ntp189
Rp190
(dp191
g34
g2
sbsg35
g36
((lp192
tp193
Rp194
sbsg18
Voduntan
p195
sg26
g1
(g41
g42
(lp196
g161
atp197
Rp198
(dp199
g83
g1
(g84
g3
Ntp200
Rp201
(dp202
g88
g198
sg89
g185
sg90
g26
sbsbsg24
I3
sg25
g91
sbag1
(cpersons.staff
Staff
p203
g3
Ntp204
Rp205
(dp206
g7
Vnengi
p207
sg9
g1
(g10
g3
Ntp208
Rp209
(dp210
g14
g203
sg15
I01
sg16
(dp211
g18
g23
sg7
g23
sg24
g23
sg25
g23
sg26
(lp212
ssg28
g205
sg29
g1
(g30
g3
Ntp213
Rp214
(dp215
g34
g203
sbsg35
g36
((lp216
tp217
Rp218
sbsg18
Vadoki
p219
sg26
g1
(g41
g42
(lp220
g110
atp221
Rp222
(dp223
g83
g1
(g84
g3
Ntp224
Rp225
(dp226
g88
g222
sg89
g209
sg90
g26
sbsbsg24
I4
sg25
S'staff'
p227
sba.