(lp0
ccopy_reg
_reconstructor
p1
(cpersons.staff
Staff
p2
c__builtin__
object
p3
Ntp4
Rp5
(dp6
S'first_name'
p7
S'prosper'
p8
sS'last_name'
p9
S'otemuyiwa'
p10
sS'room'
p11
g1
(csqlalchemy.orm.collections
InstrumentedList
p12
c__builtin__
list
p13
(lp14
g1
(crooms.office
Office
p15
g3
Ntp16
Rp17
(dp18
S'_sa_instance_state'
p19
g1
(csqlalchemy.orm.state
InstanceState
p20
g3
Ntp21
Rp22
(dp23
S'class_'
p24
g15
sS'modified'
p25
I01
sS'committed_state'
p26
(dp27
S'capacity'
p28
csqlalchemy.util.langhelpers
symbol
p29
(S'NO_VALUE'
p30
S'x'
p31
I5699626739644918547
tp32
Rp33
sS'name'
p34
g33
sS'floor'
p35
g33
sS'no_of_occupants'
p36
g33
sS'identifier'
p37
g33
sS'type'
p38
g33
ssS'instance'
p39
g17
sS'manager'
p40
g1
(csqlalchemy.orm.instrumentation
_SerializeManager
p41
g3
Ntp42
Rp43
(dp44
S'class_'
p45
g15
sbsS'parents'
p46
(dp47
sS'expired_attributes'
p48
c__builtin__
set
p49
((lp50
tp51
Rp52
sS'expired'
p53
I00
sS'_pending_mutations'
p54
(dp55
sbsS'capacity'
p56
I6
sS'name'
p57
S'bellows'
p58
sS'floor'
p59
I0
sS'no_of_occupants'
p60
I1
sS'identifier'
p61
I0
sS'type'
p62
S'office'
p63
sbatp64
Rp65
(dp66
S'_sa_adapter'
p67
g1
(csqlalchemy.orm.collections
CollectionAdapter
p68
g3
Ntp69
Rp70
(dp71
S'data'
p72
g65
sS'owner_state'
p73
g1
(g20
g3
Ntp74
Rp75
(dp76
g24
g2
sg25
I01
sg26
(dp77
g7
g33
sg9
g33
sg62
g33
sg11
(lp78
sg61
g33
ssg39
g5
sg40
g1
(g41
g3
Ntp79
Rp80
(dp81
g45
g2
sbsg48
g49
((lp82
tp83
Rp84
sbsS'key'
p85
g11
sbsbsg19
g75
sg61
I0
sg62
S'staff'
p86
sba.