(lp0
ccopy_reg
_reconstructor
p1
(crooms.living_space
LivingSpace
p2
c__builtin__
object
p3
Ntp4
Rp5
(dp6
S'_sa_instance_state'
p7
g1
(csqlalchemy.orm.state
InstanceState
p8
g3
Ntp9
Rp10
(dp11
S'class_'
p12
g2
sS'modified'
p13
I01
sS'committed_state'
p14
(dp15
S'capacity'
p16
csqlalchemy.util.langhelpers
symbol
p17
(S'NO_VALUE'
p18
S'x'
p19
I5699626739644918547
tp20
Rp21
sS'name'
p22
g21
sS'floor'
p23
g21
sS'no_of_occupants'
p24
g21
sS'mem_id'
p25
g21
sS'type'
p26
g21
ssS'instance'
p27
g5
sS'manager'
p28
g1
(csqlalchemy.orm.instrumentation
_SerializeManager
p29
g3
Ntp30
Rp31
(dp32
S'class_'
p33
g2
sbsS'expired_attributes'
p34
c__builtin__
set
p35
((lp36
tp37
Rp38
sbsg16
I4
sg22
Viroko
p39
sg23
I1
sg24
I0
sg25
I0
sg26
S'living space'
p40
sbag1
(g2
g3
Ntp41
Rp42
(dp43
g7
g1
(g8
g3
Ntp44
Rp45
(dp46
g12
g2
sg13
I01
sg14
(dp47
g16
g21
sg22
g21
sg23
g21
sg24
g21
sg25
g21
sg26
g21
ssg27
g42
sg28
g1
(g29
g3
Ntp48
Rp49
(dp50
g33
g2
sbsg34
g35
((lp51
tp52
Rp53
sbsg16
I4
sg22
Vobeche
p54
sg23
I1
sg24
I0
sg25
I1
sg26
g40
sbag1
(g2
g3
Ntp55
Rp56
(dp57
g7
g1
(g8
g3
Ntp58
Rp59
(dp60
g12
g2
sg13
I01
sg14
(dp61
g16
g21
sg22
g21
sg23
g21
sg24
g21
sg25
g21
sg26
g21
ssg27
g56
sg28
g1
(g29
g3
Ntp62
Rp63
(dp64
g33
g2
sbsg34
g35
((lp65
tp66
Rp67
sbsg16
I4
sg22
Vmahogany
p68
sg23
I1
sg24
I0
sg25
I2
sg26
g40
sbag1
(crooms.office
Office
p69
g3
Ntp70
Rp71
(dp72
g7
g1
(g8
g3
Ntp73
Rp74
(dp75
g12
g69
sg13
I01
sg14
(dp76
g16
g21
sg22
g21
sg23
g21
sg24
g21
sg25
g21
sg26
g21
ssg27
g71
sg28
g1
(g29
g3
Ntp77
Rp78
(dp79
g33
g69
sbsg34
g35
((lp80
tp81
Rp82
sbsg16
I6
sg22
Vforge
p83
sg23
I0
sg24
I0
sg25
I3
sg26
S'office'
p84
sbag1
(g69
g3
Ntp85
Rp86
(dp87
g7
g1
(g8
g3
Ntp88
Rp89
(dp90
g12
g69
sg13
I01
sg14
(dp91
g16
g21
sg22
g21
sg23
g21
sg24
g21
sg25
g21
sg26
g21
ssg27
g86
sg28
g1
(g29
g3
Ntp92
Rp93
(dp94
g33
g69
sbsg34
g35
((lp95
tp96
Rp97
sbsg16
I6
sg22
Vbellow
p98
sg23
I0
sg24
I0
sg25
I4
sg26
g84
sba.