(lp0
ccopy_reg
_reconstructor
p1
(crooms.office
Office
p2
c__builtin__
object
p3
Ntp4
Rp5
(dp6
S'_sa_instance_state'
p7
g1
(csqlalchemy.orm.state
InstanceState
p8
g3
Ntp9
Rp10
(dp11
S'class_'
p12
g2
sS'modified'
p13
I01
sS'committed_state'
p14
(dp15
S'capacity'
p16
csqlalchemy.util.langhelpers
symbol
p17
(S'NO_VALUE'
p18
S'x'
p19
I5699626739644918547
tp20
Rp21
sS'name'
p22
g21
sS'floor'
p23
g21
sS'no_of_occupants'
p24
g21
sS'identifier'
p25
g21
sS'type'
p26
g21
ssS'instance'
p27
g5
sS'manager'
p28
g1
(csqlalchemy.orm.instrumentation
_SerializeManager
p29
g3
Ntp30
Rp31
(dp32
S'class_'
p33
g2
sbsS'parents'
p34
(dp35
sS'expired_attributes'
p36
c__builtin__
set
p37
((lp38
tp39
Rp40
sS'expired'
p41
I00
sS'_pending_mutations'
p42
(dp43
sbsS'capacity'
p44
I6
sS'name'
p45
Vbellow
p46
sS'floor'
p47
I1
sS'no_of_occupants'
p48
I0
sS'identifier'
p49
I1
sS'type'
p50
S'office'
p51
sbag1
(g2
g3
Ntp52
Rp53
(dp54
g7
g1
(g8
g3
Ntp55
Rp56
(dp57
g12
g2
sg13
I01
sg14
(dp58
g16
g21
sg22
g21
sg23
g21
sg24
g21
sg25
g21
sg26
g21
ssg27
g53
sg28
g1
(g29
g3
Ntp59
Rp60
(dp61
g33
g2
sbsg34
(dp62
sg36
g37
((lp63
tp64
Rp65
sg41
I00
sg42
(dp66
sbsg44
I6
sg45
Vbellow
p67
sg47
I1
sg48
I1
sg49
I1
sg50
g51
sbag1
(crooms.living_space
LivingSpace
p68
g3
Ntp69
Rp70
(dp71
g7
g1
(g8
g3
Ntp72
Rp73
(dp74
g12
g68
sg13
I01
sg14
(dp75
g16
g21
sg22
g21
sg23
g21
sg24
g21
sg25
g21
sg26
g21
ssg27
g70
sg28
g1
(g29
g3
Ntp76
Rp77
(dp78
g33
g68
sbsg34
(dp79
sg36
g37
((lp80
tp81
Rp82
sg41
I00
sg42
(dp83
sbsg44
I4
sg45
Vmahogany
p84
sg47
I1
sg48
I0
sg49
I0
sg50
S'living space'
p85
sbag1
(g2
g3
Ntp86
Rp87
(dp88
g7
g1
(g8
g3
Ntp89
Rp90
(dp91
g12
g2
sg13
I01
sg14
(dp92
g16
g21
sg22
g21
sg23
g21
sg24
g21
sg25
g21
sg26
g21
ssg27
g87
sg28
g1
(g29
g3
Ntp93
Rp94
(dp95
g33
g2
sbsg34
(dp96
sg36
g37
((lp97
tp98
Rp99
sg41
I00
sg42
(dp100
sbsg44
I6
sg45
Vbellow
p101
sg47
I1
sg48
I0
sg49
I1
sg50
g51
sbag1
(g2
g3
Ntp102
Rp103
(dp104
g7
g1
(g8
g3
Ntp105
Rp106
(dp107
g12
g2
sg13
I01
sg14
(dp108
S'capacity'
p109
g21
sS'name'
p110
g21
sS'floor'
p111
g21
sS'no_of_occupants'
p112
g21
sS'identifier'
p113
g21
sS'type'
p114
g21
ssg27
g103
sg28
g1
(g29
g3
Ntp115
Rp116
(dp117
g33
g2
sbsg34
(dp118
sg36
g37
((lp119
tp120
Rp121
sg41
I00
sg42
(dp122
sbsg44
I6
sg45
S'maza'
p123
sg47
I1
sg48
I-1
sg49
I4
sg50
S'office'
p124
sba.