(lp0
ccopy_reg
_reconstructor
p1
(crooms.office
Office
p2
c__builtin__
object
p3
Ntp4
Rp5
(dp6
S'_sa_instance_state'
p7
g1
(csqlalchemy.orm.state
InstanceState
p8
g3
Ntp9
Rp10
(dp11
S'class_'
p12
g2
sS'modified'
p13
I01
sS'committed_state'
p14
(dp15
S'capacity'
p16
csqlalchemy.util.langhelpers
symbol
p17
(S'NO_VALUE'
p18
S'x'
p19
I5699626739644918547
tp20
Rp21
sS'name'
p22
g21
sS'floor'
p23
g21
sS'no_of_occupants'
p24
g21
sS'mem_id'
p25
g21
sS'type'
p26
g21
ssS'instance'
p27
g5
sS'manager'
p28
g1
(csqlalchemy.orm.instrumentation
_SerializeManager
p29
g3
Ntp30
Rp31
(dp32
S'class_'
p33
g2
sbsS'expired_attributes'
p34
c__builtin__
set
p35
((lp36
tp37
Rp38
sbsg16
I6
sg22
Vbellow
p39
sg23
I0
sg24
I0
sg25
I0
sg26
S'office'
p40
sbag1
(g2
g3
Ntp41
Rp42
(dp43
g7
g1
(g8
g3
Ntp44
Rp45
(dp46
g12
g2
sg13
I01
sg14
(dp47
g16
g21
sg22
g21
sg23
g21
sg24
g21
sg25
g21
sg26
g21
ssg27
g42
sg28
g1
(g29
g3
Ntp48
Rp49
(dp50
g33
g2
sbsg34
g35
((lp51
tp52
Rp53
sbsg16
I6
sg22
Vforge
p54
sg23
I0
sg24
I0
sg25
I1
sg26
g40
sbag1
(crooms.living_space
LivingSpace
p55
g3
Ntp56
Rp57
(dp58
g7
g1
(g8
g3
Ntp59
Rp60
(dp61
g12
g55
sg13
I01
sg14
(dp62
g16
g21
sg22
g21
sg23
g21
sg24
g21
sg25
g21
sg26
g21
ssg27
g57
sg28
g1
(g29
g3
Ntp63
Rp64
(dp65
g33
g55
sbsg34
g35
((lp66
tp67
Rp68
sbsg16
I4
sg22
Vmahogany
p69
sg23
I1
sg24
I0
sg25
I2
sg26
S'living space'
p70
sbag1
(g55
g3
Ntp71
Rp72
(dp73
g7
g1
(g8
g3
Ntp74
Rp75
(dp76
g12
g55
sg13
I01
sg14
(dp77
g16
g21
sg22
g21
sg23
g21
sg24
g21
sg25
g21
sg26
g21
ssg27
g72
sg28
g1
(g29
g3
Ntp78
Rp79
(dp80
g33
g55
sbsg34
g35
((lp81
tp82
Rp83
sbsg16
I4
sg22
Viroko
p84
sg23
I1
sg24
I0
sg25
I3
sg26
g70
sbag1
(g55
g3
Ntp85
Rp86
(dp87
g7
g1
(g8
g3
Ntp88
Rp89
(dp90
g12
g55
sg13
I01
sg14
(dp91
g16
g21
sg22
g21
sg23
g21
sg24
g21
sg25
g21
sg26
g21
ssg27
g86
sg28
g1
(g29
g3
Ntp92
Rp93
(dp94
g33
g55
sbsg34
g35
((lp95
tp96
Rp97
sbsg16
I4
sg22
Vcedar
p98
sg23
I1
sg24
I0
sg25
I4
sg26
g70
sbag1
(g2
g3
Ntp99
Rp100
(dp101
g7
g1
(g8
g3
Ntp102
Rp103
(dp104
g12
g2
sg13
I01
sg14
(dp105
g16
g21
sg22
g21
sg23
g21
sg24
g21
sg25
g21
sg26
g21
ssg27
g100
sg28
g1
(g29
g3
Ntp106
Rp107
(dp108
g33
g2
sbsg34
g35
((lp109
tp110
Rp111
sbsg16
I6
sg22
Vroster
p112
sg23
I0
sg24
I0
sg25
I5
sg26
g40
sba.