(lp0
ccopy_reg
_reconstructor
p1
(crooms.office
Office
p2
c__builtin__
object
p3
Ntp4
Rp5
(dp6
S'_sa_instance_state'
p7
g1
(csqlalchemy.orm.state
InstanceState
p8
g3
Ntp9
Rp10
(dp11
S'class_'
p12
g2
sS'modified'
p13
I01
sS'committed_state'
p14
(dp15
S'capacity'
p16
csqlalchemy.util.langhelpers
symbol
p17
(S'NO_VALUE'
p18
S'x'
p19
I5699626739644918547
tp20
Rp21
sS'name'
p22
g21
sS'floor'
p23
g21
sS'no_of_occupants'
p24
g21
sS'identifier'
p25
g21
sS'type'
p26
g21
ssS'instance'
p27
g5
sS'manager'
p28
g1
(csqlalchemy.orm.instrumentation
_SerializeManager
p29
g3
Ntp30
Rp31
(dp32
S'class_'
p33
g2
sbsS'parents'
p34
(dp35
sS'expired_attributes'
p36
c__builtin__
set
p37
((lp38
tp39
Rp40
sS'expired'
p41
I00
sS'_pending_mutations'
p42
(dp43
sbsS'capacity'
p44
I6
sS'name'
p45
S'bellows'
p46
sS'floor'
p47
I0
sS'no_of_occupants'
p48
I1
sS'identifier'
p49
I0
sS'type'
p50
S'office'
p51
sba.